; Function Attrs: nounwind uwtable
define hidden void @SDL_DestroyTexture_REAL(ptr noundef %0) local_unnamed_addr #0 {
  %2 = tail call zeroext i1 @SDL_ObjectValid(ptr noundef %0, i32 noundef 3) #15
  br i1 %2, label %5, label %3

3:                                                ; preds = %1
  %4 = tail call zeroext i1 (ptr, ...) @SDL_SetError_REAL(ptr noundef nonnull @.str.2, ptr noundef nonnull @.str.52) #15
  br label %11

5:                                                ; preds = %1
  %6 = getelementptr inbounds nuw i8, ptr %0, i64 12
  %7 = load i32, ptr %6, align 4
  %8 = add nsw i32 %7, -1
  store i32 %8, ptr %6, align 4
  %9 = icmp sgt i32 %7, 1
  br i1 %9, label %11, label %10

10:                                               ; preds = %5
  tail call fastcc void @SDL_DestroyTextureInternal(ptr noundef nonnull %0, i1 noundef zeroext false)
  br label %11

11:                                               ; preds = %5, %10, %3
  ret void
}